target datalayout = "e-m:e-p270:32:32-p271:32:32-p272:64:64-i64:64-i128:128-f80:128-n8:16:32:64-S128"
target triple = "x86_64-pc-linux-gnu"

%struct._e_guid_t = type { i32, i16, i16, [8 x i8] }
%struct._packet_info = type { ptr, ptr, i32, i32, %struct.nstime_t, %struct.nstime_t, %struct.nstime_t, i8, ptr, ptr, ptr, ptr, %struct._address, %struct._address, %struct._address, %struct._address, %struct._address, %struct._address, i32, ptr, i8, [3 x i8], %struct.anon, i32, i32, i32, i32, ptr, i8, ptr, ptr, i16, i16, i32, i32, i16, i32, i32, ptr, ptr, ptr, i8, i8, i16, i16, i16, i32, i16, i16, ptr, ptr, ptr, ptr, ptr, i32, i32 }
%struct.nstime_t = type { i64, i32 }
%struct._address = type { i32, i32, ptr, ptr }
%struct.anon = type { i8, [3 x i8] }
%struct._dcerpc_info = type { ptr, i32, i64, i8, i8, i8, i32, i32, i32, i32, i32, i32, i32, i32, ptr, ptr, ptr, ptr, %struct.anon.0 }
%struct.anon.0 = type { i8, ptr, ptr, ptr, i8 }
%struct._dcerpc_call_value = type { %struct._e_guid_t, i16, %struct._e_guid_t, i16, i32, %struct.nstime_t, i32, i32, ptr, ptr, ptr, i32 }
%struct._proto_node = type { ptr, ptr, ptr, ptr, ptr, ptr, ptr }
%struct.field_info = type { ptr, i32, i32, i32, i32, i32, i32, ptr, ptr, ptr, i32, i32 }

@hf_cba_acco_dcom_call = internal global i32 0, align 4
@hf_cba_acco_conn_consumer = internal global i32 0, align 4
@proto_ICBAAccoMgt = internal global i32 0, align 4
@.str.319 = private unnamed_addr constant [15 x i8] c" Consumer=\22%s\22\00", align 1

; Function Attrs: inlinehint nounwind null_pointer_is_valid sspstrong uwtable
define internal void @proto_item_set_generated(ptr noundef %0) #10 {
  %2 = alloca ptr, align 8
  store ptr %0, ptr %2, align 8
  %3 = load ptr, ptr %2, align 8
  %4 = icmp ne ptr %3, null
  br i1 %4, label %5, label %24

5:                                                ; preds = %1
  br label %6

6:                                                ; preds = %5
  %7 = load ptr, ptr %2, align 8
  %8 = getelementptr inbounds nuw %struct._proto_node, ptr %7, i32 0, i32 5
  %9 = load ptr, ptr %8, align 8
  %10 = icmp ne ptr %9, null
  br i1 %10, label %11, label %22

11:                                               ; preds = %6
  %12 = load ptr, ptr %2, align 8
  %13 = getelementptr inbounds nuw %struct._proto_node, ptr %12, i32 0, i32 5
  %14 = load ptr, ptr %13, align 8
  %15 = getelementptr inbounds nuw %struct.field_info, ptr %14, i32 0, i32 6
  %16 = load i32, ptr %15, align 4
  %17 = or i32 %16, 2
  %18 = load ptr, ptr %2, align 8
  %19 = getelementptr inbounds nuw %struct._proto_node, ptr %18, i32 0, i32 5
  %20 = load ptr, ptr %19, align 8
  %21 = getelementptr inbounds nuw %struct.field_info, ptr %20, i32 0, i32 6
  store i32 %17, ptr %21, align 4
  br label %22

22:                                               ; preds = %11, %6
  br label %23

23:                                               ; preds = %22
  br label %24

24:                                               ; preds = %23, %1
  ret void
}

; Function Attrs: null_pointer_is_valid sspstrong uwtable
define internal i32 @dissect_ICBAAccoServer2_GetConnectionData_rqst(ptr noundef %0, i32 noundef %1, ptr noundef %2, ptr noundef %3, ptr noundef %4, ptr noundef %5) #0 {
  %7 = alloca ptr, align 8
  %8 = alloca i32, align 4
  %9 = alloca ptr, align 8
  %10 = alloca ptr, align 8
  %11 = alloca ptr, align 8
  %12 = alloca ptr, align 8
  %13 = alloca [1000 x i8], align 16
  %14 = alloca i32, align 4
  %15 = alloca ptr, align 8
  %16 = alloca ptr, align 8
  %17 = alloca ptr, align 8
  store ptr %0, ptr %7, align 8
  store i32 %1, ptr %8, align 4
  store ptr %2, ptr %9, align 8
  store ptr %3, ptr %10, align 8
  store ptr %4, ptr %11, align 8
  store ptr %5, ptr %12, align 8
  call void @llvm.lifetime.start.p0(i64 1000, ptr %13) #12
  call void @llvm.lifetime.start.p0(i64 4, ptr %14) #12
  store i32 1000, ptr %14, align 4
  call void @llvm.lifetime.start.p0(i64 8, ptr %15) #12
  call void @llvm.lifetime.start.p0(i64 8, ptr %16) #12
  call void @llvm.lifetime.start.p0(i64 8, ptr %17) #12
  %18 = load ptr, ptr %7, align 8
  %19 = load i32, ptr %8, align 4
  %20 = load ptr, ptr %9, align 8
  %21 = load ptr, ptr %10, align 8
  %22 = load ptr, ptr %11, align 8
  %23 = load ptr, ptr %12, align 8
  %24 = call i32 @dissect_dcom_this(ptr noundef %18, i32 noundef %19, ptr noundef %20, ptr noundef %21, ptr noundef %22, ptr noundef %23)
  store i32 %24, ptr %8, align 4
  %25 = load ptr, ptr %10, align 8
  %26 = load i32, ptr @hf_cba_acco_dcom_call, align 4
  %27 = load ptr, ptr %7, align 8
  %28 = load i32, ptr %8, align 4
  %29 = call ptr @proto_tree_add_boolean(ptr noundef %25, i32 noundef %26, ptr noundef %27, i32 noundef %28, i32 noundef 0, i64 noundef 1)
  store ptr %29, ptr %15, align 8
  %30 = load ptr, ptr %15, align 8
  call void @proto_item_set_generated(ptr noundef %30)
  %31 = load ptr, ptr %9, align 8
  %32 = getelementptr inbounds nuw %struct._packet_info, ptr %31, i32 0, i32 51
  %33 = load ptr, ptr %32, align 8
  %34 = load ptr, ptr %9, align 8
  %35 = load i32, ptr @proto_ICBAAccoMgt, align 4
  call void @p_add_proto_data(ptr noundef %33, ptr noundef %34, i32 noundef %35, i32 noundef 0, ptr noundef inttoptr (i64 2 to ptr))
  %36 = load ptr, ptr %7, align 8
  %37 = load i32, ptr %8, align 4
  %38 = load ptr, ptr %9, align 8
  %39 = load ptr, ptr %10, align 8
  %40 = load ptr, ptr %11, align 8
  %41 = load ptr, ptr %12, align 8
  %42 = load i32, ptr @hf_cba_acco_conn_consumer, align 4
  %43 = getelementptr inbounds [1000 x i8], ptr %13, i64 0, i64 0
  %44 = load i32, ptr %14, align 4
  %45 = call i32 @dissect_dcom_LPWSTR(ptr noundef %36, i32 noundef %37, ptr noundef %38, ptr noundef %39, ptr noundef %40, ptr noundef %41, i32 noundef %42, ptr noundef %43, i32 noundef %44)
  store i32 %45, ptr %8, align 4
  %46 = load ptr, ptr %9, align 8
  %47 = getelementptr inbounds [1000 x i8], ptr %13, i64 0, i64 0
  %48 = call ptr @cba_acco_add(ptr noundef %46, ptr noundef %47)
  store ptr %48, ptr %16, align 8
  %49 = load ptr, ptr %16, align 8
  %50 = icmp ne ptr %49, null
  br i1 %50, label %51, label %61

51:                                               ; preds = %6
  %52 = call ptr @wmem_file_scope()
  %53 = call noalias ptr @wmem_alloc(ptr noundef %52, i64 noundef 8) #14
  store ptr %53, ptr %17, align 8
  %54 = load ptr, ptr %16, align 8
  %55 = load ptr, ptr %17, align 8
  store ptr %54, ptr %55, align 8
  %56 = load ptr, ptr %17, align 8
  %57 = load ptr, ptr %11, align 8
  %58 = getelementptr inbounds nuw %struct._dcerpc_info, ptr %57, i32 0, i32 14
  %59 = load ptr, ptr %58, align 8
  %60 = getelementptr inbounds nuw %struct._dcerpc_call_value, ptr %59, i32 0, i32 9
  store ptr %56, ptr %60, align 8
  br label %61

61:                                               ; preds = %51, %6
  %62 = load ptr, ptr %9, align 8
  %63 = getelementptr inbounds nuw %struct._packet_info, ptr %62, i32 0, i32 1
  %64 = load ptr, ptr %63, align 8
  %65 = getelementptr inbounds [1000 x i8], ptr %13, i64 0, i64 0
  call void (ptr, i32, ptr, ...) @col_append_fstr(ptr noundef %64, i32 noundef 25, ptr noundef @.str.319, ptr noundef %65)
  %66 = load i32, ptr %8, align 4
  call void @llvm.lifetime.end.p0(i64 8, ptr %17) #12
  call void @llvm.lifetime.end.p0(i64 8, ptr %16) #12
  call void @llvm.lifetime.end.p0(i64 8, ptr %15) #12
  call void @llvm.lifetime.end.p0(i64 4, ptr %14) #12
  call void @llvm.lifetime.end.p0(i64 1000, ptr %13) #12
  ret i32 %66
}