; Function Attrs: null_pointer_is_valid sspstrong uwtable
define internal i32 @dissect_ICBAAccoServer2_GetConnectionData_rqst(ptr noundef %0, i32 noundef %1, ptr noundef %2, ptr noundef %3, ptr noundef %4, ptr noundef %5) #0 {
  %7 = alloca [1000 x i8], align 16
  call void @llvm.lifetime.start.p0(i64 1000, ptr nonnull %7) #12
  %8 = tail call i32 @dissect_dcom_this(ptr noundef %0, i32 noundef %1, ptr noundef %2, ptr noundef %3, ptr noundef %4, ptr noundef %5)
  %9 = load i32, ptr @hf_cba_acco_dcom_call, align 4
  %10 = tail call ptr @proto_tree_add_boolean(ptr noundef %3, i32 noundef %9, ptr noundef %0, i32 noundef %8, i32 noundef 0, i64 noundef 1)
  %.not.i = icmp eq ptr %10, null
  br i1 %.not.i, label %proto_item_set_generated.exit, label %11

11:                                               ; preds = %6
  %12 = getelementptr inbounds nuw i8, ptr %10, i64 40
  %13 = load ptr, ptr %12, align 8
  %.not5.i = icmp eq ptr %13, null
  br i1 %.not5.i, label %proto_item_set_generated.exit, label %14

14:                                               ; preds = %11
  %15 = getelementptr inbounds nuw i8, ptr %13, i64 28
  %16 = load i32, ptr %15, align 4
  %17 = or i32 %16, 2
  store i32 %17, ptr %15, align 4
  br label %proto_item_set_generated.exit

proto_item_set_generated.exit:                    ; preds = %6, %11, %14
  %18 = getelementptr inbounds nuw i8, ptr %2, i64 408
  %19 = load ptr, ptr %18, align 8
  %20 = load i32, ptr @proto_ICBAAccoMgt, align 4
  tail call void @p_add_proto_data(ptr noundef %19, ptr noundef %2, i32 noundef %20, i32 noundef 0, ptr noundef nonnull inttoptr (i64 2 to ptr))
  %21 = load i32, ptr @hf_cba_acco_conn_consumer, align 4
  %22 = call i32 @dissect_dcom_LPWSTR(ptr noundef %0, i32 noundef %8, ptr noundef %2, ptr noundef %3, ptr noundef %4, ptr noundef %5, i32 noundef %21, ptr noundef nonnull %7, i32 noundef 1000)
  %23 = call fastcc ptr @cba_acco_add(ptr noundef %2, ptr noundef nonnull %7)
  %.not = icmp eq ptr %23, null
  br i1 %.not, label %30, label %24

24:                                               ; preds = %proto_item_set_generated.exit
  %25 = call ptr @wmem_file_scope()
  %26 = call noalias dereferenceable_or_null(8) ptr @wmem_alloc(ptr noundef %25, i64 noundef 8) #10
  store ptr %23, ptr %26, align 8
  %27 = getelementptr inbounds nuw i8, ptr %4, i64 64
  %28 = load ptr, ptr %27, align 8
  %29 = getelementptr inbounds nuw i8, ptr %28, i64 80
  store ptr %26, ptr %29, align 8
  br label %30

30:                                               ; preds = %24, %proto_item_set_generated.exit
  %31 = getelementptr inbounds nuw i8, ptr %2, i64 8
  %32 = load ptr, ptr %31, align 8
  call void (ptr, i32, ptr, ...) @col_append_fstr(ptr noundef %32, i32 noundef 25, ptr noundef nonnull @.str.319, ptr noundef nonnull %7)
  call void @llvm.lifetime.end.p0(i64 1000, ptr nonnull %7) #12
  ret i32 %22
}